; Function Attrs: mustprogress nofree norecurse nosync nounwind willreturn memory(argmem: write) uwtable
define hidden void @_ZN4cvc58internal6theory5arith6linear7CutInfoC2ENS3_12CutInfoKlassEii(ptr noundef nonnull writeonly align 8 captures(none) dereferenceable(88) initializes((0, 36), (40, 68), (72, 88)) %0, i32 noundef %1, i32 noundef %2, i32 noundef %3) unnamed_addr #8 align 2 personality ptr @__gxx_personality_v0 {
  store ptr getelementptr inbounds nuw inrange(-16, 16) (i8, ptr @_ZTVN4cvc58internal6theory5arith6linear7CutInfoE, i64 16), ptr %0, align 8, !tbaa !41
  %5 = getelementptr inbounds nuw i8, ptr %0, i64 8
  store i32 %1, ptr %5, align 8, !tbaa !55
  %6 = getelementptr inbounds nuw i8, ptr %0, i64 12
  store i32 %2, ptr %6, align 4, !tbaa !73
  %7 = getelementptr inbounds nuw i8, ptr %0, i64 16
  store i32 %3, ptr %7, align 8, !tbaa !74
  %8 = getelementptr inbounds nuw i8, ptr %0, i64 20
  store i32 -1, ptr %8, align 4, !tbaa !75
  %9 = getelementptr inbounds nuw i8, ptr %0, i64 24
  store double 0.000000e+00, ptr %9, align 8, !tbaa !76
  %10 = getelementptr inbounds nuw i8, ptr %0, i64 32
  store i32 0, ptr %10, align 8, !tbaa !36
  %11 = getelementptr inbounds nuw i8, ptr %0, i64 40
  tail call void @llvm.memset.p0.i64(ptr noundef nonnull align 8 dereferenceable(16) %11, i8 0, i64 16, i1 false)
  %12 = getelementptr inbounds nuw i8, ptr %0, i64 56
  store i32 -1, ptr %12, align 8, !tbaa !77
  %13 = getelementptr inbounds nuw i8, ptr %0, i64 60
  store i32 -1, ptr %13, align 4, !tbaa !78
  %14 = getelementptr inbounds nuw i8, ptr %0, i64 64
  store i32 -1, ptr %14, align 8, !tbaa !79
  %15 = getelementptr inbounds nuw i8, ptr %0, i64 72
  tail call void @llvm.memset.p0.i64(ptr noundef nonnull align 8 dereferenceable(16) %15, i8 0, i64 16, i1 false)
  ret void
}